target datalayout = "e-m:e-p270:32:32-p271:32:32-p272:64:64-i64:64-i128:128-f80:128-n8:16:32:64-S128"
target triple = "x86_64-pc-linux-gnu"

%struct.H5T_t = type { %struct.H5O_shared_t, ptr, %struct.H5O_loc_t, %struct.H5G_name_t, ptr }
%struct.H5O_shared_t = type { i32, ptr, i32, %union.anon }
%union.anon = type { %struct.H5O_mesg_loc_t }
%struct.H5O_mesg_loc_t = type { i32, i64 }
%struct.H5O_loc_t = type { ptr, i64, i8 }
%struct.H5G_name_t = type { ptr, ptr, i32 }
%struct.H5T_shared_t = type { i64, i32, i32, i64, i32, i8, ptr, ptr, %union.anon.0 }
%union.anon.0 = type { %struct.H5T_array_t }
%struct.H5T_array_t = type { i64, i32, [32 x i64] }
%struct.H5T_atomic_t = type { i32, i64, i64, i32, i32, %union.anon.1 }
%union.anon.1 = type { %struct.anon.2 }
%struct.anon.2 = type { i64, i64, i64, i64, i64, i64, i32, i32 }
%struct.H5T_enum_t = type { i32, i32, i32, ptr, ptr }

@H5_libinit_g = external global i8, align 1
@H5_libterm_g = external global i8, align 1
@.str = private unnamed_addr constant [100 x i8] c"generated/home/dtcxzyw/WorkSpace/Projects/compilers/llvm-opt-benchmark/bench/hdf5/hdf5/src/H5Tpad.c\00", align 1
@H5E_FUNC_g = external global i64, align 8
@H5E_CANTINIT_g = external global i64, align 8
@.str.1 = private unnamed_addr constant [30 x i8] c"library initialization failed\00", align 1
@H5E_CANTSET_g = external global i64, align 8
@.str.2 = private unnamed_addr constant [22 x i8] c"can't set API context\00", align 1
@H5E_ARGS_g = external global i64, align 8
@H5E_BADTYPE_g = external global i64, align 8
@.str.3 = private unnamed_addr constant [16 x i8] c"not a data type\00", align 1
@H5E_DATATYPE_g = external global i64, align 8
@H5E_UNSUPPORTED_g = external global i64, align 8
@.str.4 = private unnamed_addr constant [46 x i8] c"operation not defined for specified data type\00", align 1
@__func__.H5Tset_pad = private unnamed_addr constant [11 x i8] c"H5Tset_pad\00", align 1
@.str.5 = private unnamed_addr constant [23 x i8] c"data type is read-only\00", align 1
@H5E_BADVALUE_g = external global i64, align 8
@.str.6 = private unnamed_addr constant [17 x i8] c"invalid pad type\00", align 1
@.str.7 = private unnamed_addr constant [48 x i8] c"operation not allowed after members are defined\00", align 1

; Function Attrs: nounwind uwtable
define i32 @H5Tset_pad(i64 noundef %0, i32 noundef %1, i32 noundef %2) #0 {
  %4 = alloca i64, align 8
  %5 = alloca i32, align 4
  %6 = alloca i32, align 4
  %7 = alloca ptr, align 8
  %8 = alloca i32, align 4
  %9 = alloca i8, align 1
  %10 = alloca i8, align 1
  store i64 %0, ptr %4, align 8
  store i32 %1, ptr %5, align 4
  store i32 %2, ptr %6, align 4
  store ptr null, ptr %7, align 8
  store i32 0, ptr %8, align 4
  store i8 0, ptr %9, align 1
  store i8 0, ptr %10, align 1
  %11 = load i8, ptr @H5_libinit_g, align 1
  %12 = trunc i8 %11 to i1
  br i1 %12, label %17, label %13

13:                                               ; preds = %3
  %14 = load i8, ptr @H5_libterm_g, align 1
  %15 = trunc i8 %14 to i1
  %16 = xor i1 %15, true
  br label %17

17:                                               ; preds = %13, %3
  %18 = phi i1 [ false, %3 ], [ %16, %13 ]
  %19 = xor i1 %18, true
  %20 = xor i1 %19, true
  %21 = zext i1 %20 to i32
  %22 = sext i32 %21 to i64
  %23 = icmp ne i64 %22, 0
  br i1 %23, label %24, label %48

24:                                               ; preds = %17
  %25 = call i32 @H5_init_library()
  %26 = icmp slt i32 %25, 0
  %27 = xor i1 %26, true
  %28 = xor i1 %27, true
  %29 = zext i1 %28 to i32
  %30 = sext i32 %29 to i64
  %31 = icmp ne i64 %30, 0
  br i1 %31, label %32, label %47

32:                                               ; preds = %24
  br label %33

33:                                               ; preds = %32
  br label %34

34:                                               ; preds = %33
  br label %35

35:                                               ; preds = %34
  %36 = load i64, ptr @H5E_FUNC_g, align 8
  %37 = load i64, ptr @H5E_CANTINIT_g, align 8
  %38 = call i32 (ptr, ptr, i32, i64, i64, ptr, ...) @H5E_printf_stack(ptr noundef @.str, ptr noundef @__func__.H5Tset_pad, i32 noundef 77, i64 noundef %36, i64 noundef %37, ptr noundef @.str.1)
  br label %39

39:                                               ; preds = %35
  store i8 1, ptr %10, align 1
  %40 = load i8, ptr %10, align 1
  %41 = trunc i8 %40 to i1
  %42 = zext i1 %41 to i8
  store i8 %42, ptr %10, align 1
  br label %43

43:                                               ; preds = %39
  br label %44

44:                                               ; preds = %43
  store i32 -1, ptr %8, align 4
  br label %255

45:                                               ; No predecessors!
  br label %46

46:                                               ; preds = %45
  br label %47

47:                                               ; preds = %46, %24
  br label %48

48:                                               ; preds = %47, %17
  %49 = call i32 @H5CX_push()
  %50 = icmp slt i32 %49, 0
  %51 = xor i1 %50, true
  %52 = xor i1 %51, true
  %53 = zext i1 %52 to i32
  %54 = sext i32 %53 to i64
  %55 = icmp ne i64 %54, 0
  br i1 %55, label %56, label %71

56:                                               ; preds = %48
  br label %57

57:                                               ; preds = %56
  br label %58

58:                                               ; preds = %57
  br label %59

59:                                               ; preds = %58
  %60 = load i64, ptr @H5E_FUNC_g, align 8
  %61 = load i64, ptr @H5E_CANTSET_g, align 8
  %62 = call i32 (ptr, ptr, i32, i64, i64, ptr, ...) @H5E_printf_stack(ptr noundef @.str, ptr noundef @__func__.H5Tset_pad, i32 noundef 77, i64 noundef %60, i64 noundef %61, ptr noundef @.str.2)
  br label %63

63:                                               ; preds = %59
  store i8 1, ptr %10, align 1
  %64 = load i8, ptr %10, align 1
  %65 = trunc i8 %64 to i1
  %66 = zext i1 %65 to i8
  store i8 %66, ptr %10, align 1
  br label %67

67:                                               ; preds = %63
  br label %68

68:                                               ; preds = %67
  store i32 -1, ptr %8, align 4
  br label %255

69:                                               ; No predecessors!
  br label %70

70:                                               ; preds = %69
  br label %72

71:                                               ; preds = %48
  store i8 1, ptr %9, align 1
  br label %72

72:                                               ; preds = %71, %70
  %73 = call i32 @H5E_clear_stack()
  %74 = load i64, ptr %4, align 8
  %75 = call ptr @H5I_object_verify(i64 noundef %74, i32 noundef 3)
  store ptr %75, ptr %7, align 8
  %76 = icmp eq ptr null, %75
  br i1 %76, label %77, label %92

77:                                               ; preds = %72
  br label %78

78:                                               ; preds = %77
  br label %79

79:                                               ; preds = %78
  br label %80

80:                                               ; preds = %79
  %81 = load i64, ptr @H5E_ARGS_g, align 8
  %82 = load i64, ptr @H5E_BADTYPE_g, align 8
  %83 = call i32 (ptr, ptr, i32, i64, i64, ptr, ...) @H5E_printf_stack(ptr noundef @.str, ptr noundef @__func__.H5Tset_pad, i32 noundef 81, i64 noundef %81, i64 noundef %82, ptr noundef @.str.3)
  br label %84

84:                                               ; preds = %80
  store i8 1, ptr %10, align 1
  %85 = load i8, ptr %10, align 1
  %86 = trunc i8 %85 to i1
  %87 = zext i1 %86 to i8
  store i8 %87, ptr %10, align 1
  br label %88

88:                                               ; preds = %84
  br label %89

89:                                               ; preds = %88
  store i32 -1, ptr %8, align 4
  br label %255

90:                                               ; No predecessors!
  br label %91

91:                                               ; preds = %90
  br label %92

92:                                               ; preds = %91, %72
  %93 = load ptr, ptr %7, align 8
  %94 = getelementptr inbounds %struct.H5T_t, ptr %93, i32 0, i32 1
  %95 = load ptr, ptr %94, align 8
  %96 = getelementptr inbounds %struct.H5T_shared_t, ptr %95, i32 0, i32 1
  %97 = load i32, ptr %96, align 8
  %98 = icmp ne i32 0, %97
  br i1 %98, label %99, label %114

99:                                               ; preds = %92
  br label %100

100:                                              ; preds = %99
  br label %101

101:                                              ; preds = %100
  br label %102

102:                                              ; preds = %101
  %103 = load i64, ptr @H5E_ARGS_g, align 8
  %104 = load i64, ptr @H5E_CANTINIT_g, align 8
  %105 = call i32 (ptr, ptr, i32, i64, i64, ptr, ...) @H5E_printf_stack(ptr noundef @.str, ptr noundef @__func__.H5Tset_pad, i32 noundef 83, i64 noundef %103, i64 noundef %104, ptr noundef @.str.5)
  br label %106

106:                                              ; preds = %102
  store i8 1, ptr %10, align 1
  %107 = load i8, ptr %10, align 1
  %108 = trunc i8 %107 to i1
  %109 = zext i1 %108 to i8
  store i8 %109, ptr %10, align 1
  br label %110

110:                                              ; preds = %106
  br label %111

111:                                              ; preds = %110
  store i32 -1, ptr %8, align 4
  br label %255

112:                                              ; No predecessors!
  br label %113

113:                                              ; preds = %112
  br label %114

114:                                              ; preds = %113, %92
  %115 = load i32, ptr %5, align 4
  %116 = icmp slt i32 %115, 0
  br i1 %116, label %126, label %117

117:                                              ; preds = %114
  %118 = load i32, ptr %5, align 4
  %119 = icmp sge i32 %118, 3
  br i1 %119, label %126, label %120

120:                                              ; preds = %117
  %121 = load i32, ptr %6, align 4
  %122 = icmp slt i32 %121, 0
  br i1 %122, label %126, label %123

123:                                              ; preds = %120
  %124 = load i32, ptr %6, align 4
  %125 = icmp sge i32 %124, 3
  br i1 %125, label %126, label %141

126:                                              ; preds = %123, %120, %117, %114
  br label %127

127:                                              ; preds = %126
  br label %128

128:                                              ; preds = %127
  br label %129

129:                                              ; preds = %128
  %130 = load i64, ptr @H5E_ARGS_g, align 8
  %131 = load i64, ptr @H5E_BADVALUE_g, align 8
  %132 = call i32 (ptr, ptr, i32, i64, i64, ptr, ...) @H5E_printf_stack(ptr noundef @.str, ptr noundef @__func__.H5Tset_pad, i32 noundef 85, i64 noundef %130, i64 noundef %131, ptr noundef @.str.6)
  br label %133

133:                                              ; preds = %129
  store i8 1, ptr %10, align 1
  %134 = load i8, ptr %10, align 1
  %135 = trunc i8 %134 to i1
  %136 = zext i1 %135 to i8
  store i8 %136, ptr %10, align 1
  br label %137

137:                                              ; preds = %133
  br label %138

138:                                              ; preds = %137
  store i32 -1, ptr %8, align 4
  br label %255

139:                                              ; No predecessors!
  br label %140

140:                                              ; preds = %139
  br label %141

141:                                              ; preds = %140, %123
  %142 = load ptr, ptr %7, align 8
  %143 = getelementptr inbounds %struct.H5T_t, ptr %142, i32 0, i32 1
  %144 = load ptr, ptr %143, align 8
  %145 = getelementptr inbounds %struct.H5T_shared_t, ptr %144, i32 0, i32 2
  %146 = load i32, ptr %145, align 4
  %147 = icmp eq i32 8, %146
  br i1 %147, label %148, label %171

148:                                              ; preds = %141
  %149 = load ptr, ptr %7, align 8
  %150 = getelementptr inbounds %struct.H5T_t, ptr %149, i32 0, i32 1
  %151 = load ptr, ptr %150, align 8
  %152 = getelementptr inbounds %struct.H5T_shared_t, ptr %151, i32 0, i32 8
  %153 = getelementptr inbounds %struct.H5T_enum_t, ptr %152, i32 0, i32 1
  %154 = load i32, ptr %153, align 4
  %155 = icmp ugt i32 %154, 0
  br i1 %155, label %156, label %171

156:                                              ; preds = %148
  br label %157

157:                                              ; preds = %156
  br label %158

158:                                              ; preds = %157
  br label %159

159:                                              ; preds = %158
  %160 = load i64, ptr @H5E_DATATYPE_g, align 8
  %161 = load i64, ptr @H5E_CANTINIT_g, align 8
  %162 = call i32 (ptr, ptr, i32, i64, i64, ptr, ...) @H5E_printf_stack(ptr noundef @.str, ptr noundef @__func__.H5Tset_pad, i32 noundef 87, i64 noundef %160, i64 noundef %161, ptr noundef @.str.7)
  br label %163

163:                                              ; preds = %159
  store i8 1, ptr %10, align 1
  %164 = load i8, ptr %10, align 1
  %165 = trunc i8 %164 to i1
  %166 = zext i1 %165 to i8
  store i8 %166, ptr %10, align 1
  br label %167

167:                                              ; preds = %163
  br label %168

168:                                              ; preds = %167
  store i32 -1, ptr %8, align 4
  br label %255

169:                                              ; No predecessors!
  br label %170

170:                                              ; preds = %169
  br label %171

171:                                              ; preds = %170, %148, %141
  br label %172

172:                                              ; preds = %179, %171
  %173 = load ptr, ptr %7, align 8
  %174 = getelementptr inbounds %struct.H5T_t, ptr %173, i32 0, i32 1
  %175 = load ptr, ptr %174, align 8
  %176 = getelementptr inbounds %struct.H5T_shared_t, ptr %175, i32 0, i32 6
  %177 = load ptr, ptr %176, align 8
  %178 = icmp ne ptr %177, null
  br i1 %178, label %179, label %185

179:                                              ; preds = %172
  %180 = load ptr, ptr %7, align 8
  %181 = getelementptr inbounds %struct.H5T_t, ptr %180, i32 0, i32 1
  %182 = load ptr, ptr %181, align 8
  %183 = getelementptr inbounds %struct.H5T_shared_t, ptr %182, i32 0, i32 6
  %184 = load ptr, ptr %183, align 8
  store ptr %184, ptr %7, align 8
  br label %172

185:                                              ; preds = %172
  %186 = load ptr, ptr %7, align 8
  %187 = getelementptr inbounds %struct.H5T_t, ptr %186, i32 0, i32 1
  %188 = load ptr, ptr %187, align 8
  %189 = getelementptr inbounds %struct.H5T_shared_t, ptr %188, i32 0, i32 2
  %190 = load i32, ptr %189, align 4
  %191 = icmp eq i32 %190, 6
  br i1 %191, label %227, label %192

192:                                              ; preds = %185
  %193 = load ptr, ptr %7, align 8
  %194 = getelementptr inbounds %struct.H5T_t, ptr %193, i32 0, i32 1
  %195 = load ptr, ptr %194, align 8
  %196 = getelementptr inbounds %struct.H5T_shared_t, ptr %195, i32 0, i32 2
  %197 = load i32, ptr %196, align 4
  %198 = icmp eq i32 %197, 8
  br i1 %198, label %227, label %199

199:                                              ; preds = %192
  %200 = load ptr, ptr %7, align 8
  %201 = getelementptr inbounds %struct.H5T_t, ptr %200, i32 0, i32 1
  %202 = load ptr, ptr %201, align 8
  %203 = getelementptr inbounds %struct.H5T_shared_t, ptr %202, i32 0, i32 2
  %204 = load i32, ptr %203, align 4
  %205 = icmp eq i32 %204, 9
  br i1 %205, label %227, label %206

206:                                              ; preds = %199
  %207 = load ptr, ptr %7, align 8
  %208 = getelementptr inbounds %struct.H5T_t, ptr %207, i32 0, i32 1
  %209 = load ptr, ptr %208, align 8
  %210 = getelementptr inbounds %struct.H5T_shared_t, ptr %209, i32 0, i32 2
  %211 = load i32, ptr %210, align 4
  %212 = icmp eq i32 %211, 10
  br i1 %212, label %227, label %213

213:                                              ; preds = %206
  %214 = load ptr, ptr %7, align 8
  %215 = getelementptr inbounds %struct.H5T_t, ptr %214, i32 0, i32 1
  %216 = load ptr, ptr %215, align 8
  %217 = getelementptr inbounds %struct.H5T_shared_t, ptr %216, i32 0, i32 2
  %218 = load i32, ptr %217, align 4
  %219 = icmp eq i32 %218, 7
  br i1 %219, label %227, label %220

220:                                              ; preds = %213
  %221 = load ptr, ptr %7, align 8
  %222 = getelementptr inbounds %struct.H5T_t, ptr %221, i32 0, i32 1
  %223 = load ptr, ptr %222, align 8
  %224 = getelementptr inbounds %struct.H5T_shared_t, ptr %223, i32 0, i32 2
  %225 = load i32, ptr %224, align 4
  %226 = icmp eq i32 %225, 5
  br i1 %226, label %227, label %242

227:                                              ; preds = %220, %213, %206, %199, %192, %185
  br label %228

228:                                              ; preds = %227
  br label %229

229:                                              ; preds = %228
  br label %230

230:                                              ; preds = %229
  %231 = load i64, ptr @H5E_DATATYPE_g, align 8
  %232 = load i64, ptr @H5E_UNSUPPORTED_g, align 8
  %233 = call i32 (ptr, ptr, i32, i64, i64, ptr, ...) @H5E_printf_stack(ptr noundef @.str, ptr noundef @__func__.H5Tset_pad, i32 noundef 91, i64 noundef %231, i64 noundef %232, ptr noundef @.str.4)
  br label %234

234:                                              ; preds = %230
  store i8 1, ptr %10, align 1
  %235 = load i8, ptr %10, align 1
  %236 = trunc i8 %235 to i1
  %237 = zext i1 %236 to i8
  store i8 %237, ptr %10, align 1
  br label %238

238:                                              ; preds = %234
  br label %239

239:                                              ; preds = %238
  store i32 -1, ptr %8, align 4
  br label %255

240:                                              ; No predecessors!
  br label %241

241:                                              ; preds = %240
  br label %242

242:                                              ; preds = %241, %220
  %243 = load i32, ptr %5, align 4
  %244 = load ptr, ptr %7, align 8
  %245 = getelementptr inbounds %struct.H5T_t, ptr %244, i32 0, i32 1
  %246 = load ptr, ptr %245, align 8
  %247 = getelementptr inbounds %struct.H5T_shared_t, ptr %246, i32 0, i32 8
  %248 = getelementptr inbounds %struct.H5T_atomic_t, ptr %247, i32 0, i32 3
  store i32 %243, ptr %248, align 8
  %249 = load i32, ptr %6, align 4
  %250 = load ptr, ptr %7, align 8
  %251 = getelementptr inbounds %struct.H5T_t, ptr %250, i32 0, i32 1
  %252 = load ptr, ptr %251, align 8
  %253 = getelementptr inbounds %struct.H5T_shared_t, ptr %252, i32 0, i32 8
  %254 = getelementptr inbounds %struct.H5T_atomic_t, ptr %253, i32 0, i32 4
  store i32 %249, ptr %254, align 4
  br label %255

255:                                              ; preds = %242, %239, %168, %138, %111, %89, %68, %44
  %256 = load i8, ptr %9, align 1
  %257 = trunc i8 %256 to i1
  %258 = xor i1 %257, true
  %259 = xor i1 %258, true
  %260 = zext i1 %259 to i32
  %261 = sext i32 %260 to i64
  %262 = icmp ne i64 %261, 0
  br i1 %262, label %263, label %265

263:                                              ; preds = %255
  %264 = call i32 @H5CX_pop(i1 noundef zeroext true)
  store i8 0, ptr %9, align 1
  br label %265

265:                                              ; preds = %263, %255
  %266 = load i8, ptr %10, align 1
  %267 = trunc i8 %266 to i1
  %268 = xor i1 %267, true
  %269 = xor i1 %268, true
  %270 = zext i1 %269 to i32
  %271 = sext i32 %270 to i64
  %272 = icmp ne i64 %271, 0
  br i1 %272, label %273, label %275

273:                                              ; preds = %265
  %274 = call i32 @H5E_dump_api_stack()
  br label %275

275:                                              ; preds = %273, %265
  %276 = load i32, ptr %8, align 4
  ret i32 %276
}